target datalayout = "e-m:e-p270:32:32-p271:32:32-p272:64:64-i64:64-i128:128-f80:128-n8:16:32:64-S128"
target triple = "x86_64-pc-linux-gnu"

; Function Attrs: nounwind uwtable
define i32 @SRP_create_verifier_BN_ex(ptr noundef %0, ptr noundef %1, ptr noundef %2, ptr noundef %3, ptr noundef %4, ptr noundef %5, ptr noundef %6, ptr noundef %7) #0 {
  %9 = alloca ptr, align 8
  %10 = alloca ptr, align 8
  %11 = alloca ptr, align 8
  %12 = alloca ptr, align 8
  %13 = alloca ptr, align 8
  %14 = alloca ptr, align 8
  %15 = alloca ptr, align 8
  %16 = alloca ptr, align 8
  %17 = alloca i32, align 4
  %18 = alloca ptr, align 8
  %19 = alloca ptr, align 8
  %20 = alloca [2500 x i8], align 16
  %21 = alloca ptr, align 8
  %22 = alloca ptr, align 8
  store ptr %0, ptr %9, align 8, !tbaa !18
  store ptr %1, ptr %10, align 8, !tbaa !18
  store ptr %2, ptr %11, align 8, !tbaa !75
  store ptr %3, ptr %12, align 8, !tbaa !75
  store ptr %4, ptr %13, align 8, !tbaa !17
  store ptr %5, ptr %14, align 8, !tbaa !17
  store ptr %6, ptr %15, align 8, !tbaa !69
  store ptr %7, ptr %16, align 8, !tbaa !18
  call void @llvm.lifetime.start.p0(i64 4, ptr %17) #7
  store i32 0, ptr %17, align 4, !tbaa !32
  call void @llvm.lifetime.start.p0(i64 8, ptr %18) #7
  store ptr null, ptr %18, align 8, !tbaa !17
  call void @llvm.lifetime.start.p0(i64 8, ptr %19) #7
  %23 = load ptr, ptr %15, align 8, !tbaa !69
  %24 = call ptr @BN_CTX_new_ex(ptr noundef %23)
  store ptr %24, ptr %19, align 8, !tbaa !77
  call void @llvm.lifetime.start.p0(i64 2500, ptr %20) #7
  call void @llvm.lifetime.start.p0(i64 8, ptr %21) #7
  store ptr null, ptr %21, align 8, !tbaa !17
  call void @llvm.lifetime.start.p0(i64 8, ptr %22) #7
  %25 = load ptr, ptr %9, align 8, !tbaa !18
  %26 = icmp eq ptr %25, null
  br i1 %26, label %45, label %27

27:                                               ; preds = %8
  %28 = load ptr, ptr %10, align 8, !tbaa !18
  %29 = icmp eq ptr %28, null
  br i1 %29, label %45, label %30

30:                                               ; preds = %27
  %31 = load ptr, ptr %11, align 8, !tbaa !75
  %32 = icmp eq ptr %31, null
  br i1 %32, label %45, label %33

33:                                               ; preds = %30
  %34 = load ptr, ptr %12, align 8, !tbaa !75
  %35 = icmp eq ptr %34, null
  br i1 %35, label %45, label %36

36:                                               ; preds = %33
  %37 = load ptr, ptr %13, align 8, !tbaa !17
  %38 = icmp eq ptr %37, null
  br i1 %38, label %45, label %39

39:                                               ; preds = %36
  %40 = load ptr, ptr %14, align 8, !tbaa !17
  %41 = icmp eq ptr %40, null
  br i1 %41, label %45, label %42

42:                                               ; preds = %39
  %43 = load ptr, ptr %19, align 8, !tbaa !77
  %44 = icmp eq ptr %43, null
  br i1 %44, label %45, label %46

45:                                               ; preds = %42, %39, %36, %33, %30, %27, %8
  br label %96

46:                                               ; preds = %42
  %47 = load ptr, ptr %11, align 8, !tbaa !75
  %48 = load ptr, ptr %47, align 8, !tbaa !17
  %49 = icmp eq ptr %48, null
  br i1 %49, label %50, label %63

50:                                               ; preds = %46
  %51 = load ptr, ptr %15, align 8, !tbaa !69
  %52 = getelementptr inbounds [2500 x i8], ptr %20, i64 0, i64 0
  %53 = call i32 @RAND_bytes_ex(ptr noundef %51, ptr noundef %52, i64 noundef 20, i32 noundef 0)
  %54 = icmp sle i32 %53, 0
  br i1 %54, label %55, label %56

55:                                               ; preds = %50
  br label %96

56:                                               ; preds = %50
  %57 = getelementptr inbounds [2500 x i8], ptr %20, i64 0, i64 0
  %58 = call ptr @BN_bin2bn(ptr noundef %57, i32 noundef 20, ptr noundef null)
  store ptr %58, ptr %21, align 8, !tbaa !17
  %59 = load ptr, ptr %21, align 8, !tbaa !17
  %60 = icmp eq ptr %59, null
  br i1 %60, label %61, label %62

61:                                               ; preds = %56
  br label %96

62:                                               ; preds = %56
  br label %66

63:                                               ; preds = %46
  %64 = load ptr, ptr %11, align 8, !tbaa !75
  %65 = load ptr, ptr %64, align 8, !tbaa !17
  store ptr %65, ptr %21, align 8, !tbaa !17
  br label %66

66:                                               ; preds = %63, %62
  %67 = load ptr, ptr %21, align 8, !tbaa !17
  %68 = load ptr, ptr %9, align 8, !tbaa !18
  %69 = load ptr, ptr %10, align 8, !tbaa !18
  %70 = load ptr, ptr %15, align 8, !tbaa !69
  %71 = load ptr, ptr %16, align 8, !tbaa !18
  %72 = call ptr @SRP_Calc_x_ex(ptr noundef %67, ptr noundef %68, ptr noundef %69, ptr noundef %70, ptr noundef %71)
  store ptr %72, ptr %18, align 8, !tbaa !17
  %73 = load ptr, ptr %18, align 8, !tbaa !17
  %74 = icmp eq ptr %73, null
  br i1 %74, label %75, label %76

75:                                               ; preds = %66
  br label %96

76:                                               ; preds = %66
  %77 = call ptr @BN_new()
  store ptr %77, ptr %22, align 8, !tbaa !17
  %78 = load ptr, ptr %22, align 8, !tbaa !17
  %79 = icmp eq ptr %78, null
  br i1 %79, label %80, label %81

80:                                               ; preds = %76
  br label %96

81:                                               ; preds = %76
  %82 = load ptr, ptr %22, align 8, !tbaa !17
  %83 = load ptr, ptr %14, align 8, !tbaa !17
  %84 = load ptr, ptr %18, align 8, !tbaa !17
  %85 = load ptr, ptr %13, align 8, !tbaa !17
  %86 = load ptr, ptr %19, align 8, !tbaa !77
  %87 = call i32 @BN_mod_exp(ptr noundef %82, ptr noundef %83, ptr noundef %84, ptr noundef %85, ptr noundef %86)
  %88 = icmp ne i32 %87, 0
  br i1 %88, label %91, label %89

89:                                               ; preds = %81
  %90 = load ptr, ptr %22, align 8, !tbaa !17
  call void @BN_clear_free(ptr noundef %90)
  br label %96

91:                                               ; preds = %81
  store i32 1, ptr %17, align 4, !tbaa !32
  %92 = load ptr, ptr %21, align 8, !tbaa !17
  %93 = load ptr, ptr %11, align 8, !tbaa !75
  store ptr %92, ptr %93, align 8, !tbaa !17
  %94 = load ptr, ptr %22, align 8, !tbaa !17
  %95 = load ptr, ptr %12, align 8, !tbaa !75
  store ptr %94, ptr %95, align 8, !tbaa !17
  br label %96

96:                                               ; preds = %91, %89, %80, %75, %61, %55, %45
  %97 = load ptr, ptr %11, align 8, !tbaa !75
  %98 = icmp ne ptr %97, null
  br i1 %98, label %99, label %106

99:                                               ; preds = %96
  %100 = load ptr, ptr %11, align 8, !tbaa !75
  %101 = load ptr, ptr %100, align 8, !tbaa !17
  %102 = load ptr, ptr %21, align 8, !tbaa !17
  %103 = icmp ne ptr %101, %102
  br i1 %103, label %104, label %106

104:                                              ; preds = %99
  %105 = load ptr, ptr %21, align 8, !tbaa !17
  call void @BN_clear_free(ptr noundef %105)
  br label %106

106:                                              ; preds = %104, %99, %96
  %107 = load ptr, ptr %18, align 8, !tbaa !17
  call void @BN_clear_free(ptr noundef %107)
  %108 = load ptr, ptr %19, align 8, !tbaa !77
  call void @BN_CTX_free(ptr noundef %108)
  %109 = load i32, ptr %17, align 4, !tbaa !32
  call void @llvm.lifetime.end.p0(i64 8, ptr %22) #7
  call void @llvm.lifetime.end.p0(i64 8, ptr %21) #7
  call void @llvm.lifetime.end.p0(i64 2500, ptr %20) #7
  call void @llvm.lifetime.end.p0(i64 8, ptr %19) #7
  call void @llvm.lifetime.end.p0(i64 8, ptr %18) #7
  call void @llvm.lifetime.end.p0(i64 4, ptr %17) #7
  ret i32 %109
}