; Function Attrs: nounwind uwtable
define range(i32 0, 2) i32 @SRP_create_verifier_BN_ex(ptr noundef %0, ptr noundef %1, ptr noundef captures(address_is_null) %2, ptr noundef writeonly captures(address_is_null) %3, ptr noundef %4, ptr noundef %5, ptr noundef %6, ptr noundef %7) local_unnamed_addr #0 {
  %9 = alloca [2500 x i8], align 16
  %10 = tail call ptr @BN_CTX_new_ex(ptr noundef %6) #7
  call void @llvm.lifetime.start.p0(i64 2500, ptr nonnull %9) #7
  %11 = icmp eq ptr %0, null
  %12 = icmp eq ptr %1, null
  %or.cond = or i1 %11, %12
  %13 = icmp eq ptr %2, null
  %14 = icmp eq ptr %3, null
  %15 = or i1 %or.cond, %14
  %16 = icmp eq ptr %4, null
  %17 = or i1 %15, %16
  %18 = icmp eq ptr %5, null
  %19 = or i1 %17, %18
  %or.cond9 = or i1 %13, %19
  %20 = icmp eq ptr %10, null
  %or.cond11 = select i1 %or.cond9, i1 true, i1 %20
  br i1 %or.cond11, label %40, label %21

21:                                               ; preds = %8
  %22 = load ptr, ptr %2, align 8, !tbaa !44
  %23 = icmp eq ptr %22, null
  br i1 %23, label %24, label %30

24:                                               ; preds = %21
  %25 = call i32 @RAND_bytes_ex(ptr noundef %6, ptr noundef nonnull %9, i64 noundef 20, i32 noundef 0) #7
  %26 = icmp slt i32 %25, 1
  br i1 %26, label %.thread, label %27

27:                                               ; preds = %24
  %28 = call ptr @BN_bin2bn(ptr noundef nonnull %9, i32 noundef 20, ptr noundef null) #7
  %29 = icmp eq ptr %28, null
  br i1 %29, label %.thread, label %30

30:                                               ; preds = %21, %27
  %.1 = phi ptr [ %28, %27 ], [ %22, %21 ]
  %31 = call ptr @SRP_Calc_x_ex(ptr noundef nonnull %.1, ptr noundef %0, ptr noundef %1, ptr noundef %6, ptr noundef %7) #7
  %32 = icmp eq ptr %31, null
  br i1 %32, label %.thread, label %33

33:                                               ; preds = %30
  %34 = call ptr @BN_new() #7
  %35 = icmp eq ptr %34, null
  br i1 %35, label %.thread, label %36

36:                                               ; preds = %33
  %37 = call i32 @BN_mod_exp(ptr noundef nonnull %34, ptr noundef nonnull %5, ptr noundef nonnull %31, ptr noundef nonnull %4, ptr noundef nonnull %10) #7
  %.not = icmp eq i32 %37, 0
  br i1 %.not, label %38, label %39

38:                                               ; preds = %36
  call void @BN_clear_free(ptr noundef nonnull %34) #7
  br label %.thread

39:                                               ; preds = %36
  store ptr %.1, ptr %2, align 8, !tbaa !44
  store ptr %34, ptr %3, align 8, !tbaa !44
  br label %.thread

40:                                               ; preds = %8
  br i1 %13, label %43, label %.thread

.thread:                                          ; preds = %38, %39, %24, %27, %30, %33, %40
  %.065 = phi i32 [ 0, %40 ], [ 0, %38 ], [ 1, %39 ], [ 0, %33 ], [ 0, %30 ], [ 0, %27 ], [ 0, %24 ]
  %.04664 = phi ptr [ null, %40 ], [ %.1, %38 ], [ %.1, %39 ], [ %.1, %33 ], [ %.1, %30 ], [ null, %27 ], [ null, %24 ]
  %.04762 = phi ptr [ null, %40 ], [ %31, %38 ], [ %31, %39 ], [ %31, %33 ], [ null, %30 ], [ null, %27 ], [ null, %24 ]
  %41 = load ptr, ptr %2, align 8, !tbaa !44
  %.not58 = icmp eq ptr %41, %.04664
  br i1 %.not58, label %43, label %42

42:                                               ; preds = %.thread
  call void @BN_clear_free(ptr noundef %.04664) #7
  br label %43

43:                                               ; preds = %42, %.thread, %40
  %.066 = phi i32 [ %.065, %42 ], [ %.065, %.thread ], [ 0, %40 ]
  %.04763 = phi ptr [ %.04762, %42 ], [ %.04762, %.thread ], [ null, %40 ]
  call void @BN_clear_free(ptr noundef %.04763) #7
  call void @BN_CTX_free(ptr noundef %10) #7
  call void @llvm.lifetime.end.p0(i64 2500, ptr nonnull %9) #7
  ret i32 %.066
}